; Function Attrs: mustprogress uwtable
define internal void @"_ZNSt17_Function_handlerIFvRKNSt7__cxx1112basic_stringIcSt11char_traitsIcESaIcEEESt17basic_string_viewIcS3_EEZN20cmFindPackageCommand18SetModuleVariablesES7_RKSt6vectorISt4pairIS5_PKcESaISG_EEE3$_0E9_M_invokeERKSt9_Any_dataS7_OS9_"(ptr nocapture noundef nonnull readonly align 8 dereferenceable(16) %0, ptr noundef nonnull align 8 dereferenceable(32) %1, ptr nocapture noundef nonnull readonly align 8 dereferenceable(16) %2) #3 align 2 {
  %.val = load ptr, ptr %0, align 8
  %.val3 = load i64, ptr %2, align 8
  %4 = getelementptr inbounds i8, ptr %2, i64 8
  %.val4 = load ptr, ptr %4, align 8
  %5 = getelementptr inbounds i8, ptr %.val, i64 368
  %6 = load ptr, ptr %5, align 8
  %7 = tail call ptr @_ZNK10cmMakefile13GetDefinitionERKNSt7__cxx1112basic_stringIcSt11char_traitsIcESaIcEEE(ptr noundef nonnull align 8 dereferenceable(3520) %6, ptr noundef nonnull align 8 dereferenceable(32) %1)
  %.not.i.i.i.i = icmp eq ptr %7, null
  %8 = getelementptr inbounds i8, ptr %.val, i64 384
  %9 = tail call noundef nonnull align 8 dereferenceable(40) ptr @_ZNSt3mapINSt7__cxx1112basic_stringIcSt11char_traitsIcESaIcEEEN20cmFindPackageCommand11OriginalDefESt4lessIS5_ESaISt4pairIKS5_S7_EEEixERSB_(ptr noundef nonnull align 8 dereferenceable(48) %8, ptr noundef nonnull align 8 dereferenceable(32) %1)
  br i1 %.not.i.i.i.i, label %14, label %10

10:                                               ; preds = %3
  store i8 1, ptr %9, align 8
  %11 = tail call noundef nonnull align 8 dereferenceable(40) ptr @_ZNSt3mapINSt7__cxx1112basic_stringIcSt11char_traitsIcESaIcEEEN20cmFindPackageCommand11OriginalDefESt4lessIS5_ESaISt4pairIKS5_S7_EEEixERSB_(ptr noundef nonnull align 8 dereferenceable(48) %8, ptr noundef nonnull align 8 dereferenceable(32) %1)
  %12 = getelementptr inbounds i8, ptr %11, i64 8
  %13 = tail call noundef nonnull align 8 dereferenceable(32) ptr @_ZNSt7__cxx1112basic_stringIcSt11char_traitsIcESaIcEEaSERKS4_(ptr noundef nonnull align 8 dereferenceable(32) %12, ptr noundef nonnull align 8 dereferenceable(32) %7)
  br label %"_ZSt10__invoke_rIvRZN20cmFindPackageCommand18SetModuleVariablesERKNSt7__cxx1112basic_stringIcSt11char_traitsIcESaIcEEERKSt6vectorISt4pairIS6_PKcESaISD_EEE3$_0JS8_St17basic_string_viewIcS4_EEENSt9enable_ifIX16is_invocable_r_vIT_T0_DpT1_EESN_E4typeEOSO_DpOSP_.exit"

14:                                               ; preds = %3
  store i8 0, ptr %9, align 8
  br label %"_ZSt10__invoke_rIvRZN20cmFindPackageCommand18SetModuleVariablesERKNSt7__cxx1112basic_stringIcSt11char_traitsIcESaIcEEERKSt6vectorISt4pairIS6_PKcESaISD_EEE3$_0JS8_St17basic_string_viewIcS4_EEENSt9enable_ifIX16is_invocable_r_vIT_T0_DpT1_EESN_E4typeEOSO_DpOSP_.exit"

"_ZSt10__invoke_rIvRZN20cmFindPackageCommand18SetModuleVariablesERKNSt7__cxx1112basic_stringIcSt11char_traitsIcESaIcEEERKSt6vectorISt4pairIS6_PKcESaISD_EEE3$_0JS8_St17basic_string_viewIcS4_EEENSt9enable_ifIX16is_invocable_r_vIT_T0_DpT1_EESN_E4typeEOSO_DpOSP_.exit": ; preds = %10, %14
  %15 = load ptr, ptr %5, align 8
  tail call void @_ZN10cmMakefile13AddDefinitionERKNSt7__cxx1112basic_stringIcSt11char_traitsIcESaIcEEESt17basic_string_viewIcS3_E(ptr noundef nonnull align 8 dereferenceable(3520) %15, ptr noundef nonnull align 8 dereferenceable(32) %1, i64 %.val3, ptr %.val4)
  ret void
}